target datalayout = "e-m:e-p270:32:32-p271:32:32-p272:64:64-i64:64-i128:128-f80:128-n8:16:32:64-S128"
target triple = "x86_64-pc-linux-gnu"

%struct.SDL_Properties = type { ptr, ptr }
%struct.SDL_Property = type { i32, %union.anon, ptr, ptr, ptr }
%union.anon = type { ptr }

@SDL_properties = internal global ptr null, align 8

; Function Attrs: nounwind uwtable
define hidden ptr @SDL_GetPointerProperty_REAL(i32 noundef %0, ptr noundef %1, ptr noundef %2) #0 {
  %4 = alloca ptr, align 8
  %5 = alloca i32, align 4
  %6 = alloca ptr, align 8
  %7 = alloca ptr, align 8
  %8 = alloca ptr, align 8
  %9 = alloca ptr, align 8
  %10 = alloca i32, align 4
  %11 = alloca ptr, align 8
  store i32 %0, ptr %5, align 4
  store ptr %1, ptr %6, align 8
  store ptr %2, ptr %7, align 8
  call void @llvm.lifetime.start.p0(i64 8, ptr %8) #6
  store ptr null, ptr %8, align 8
  call void @llvm.lifetime.start.p0(i64 8, ptr %9) #6
  %12 = load ptr, ptr %7, align 8
  store ptr %12, ptr %9, align 8
  %13 = load i32, ptr %5, align 4
  %14 = icmp ne i32 %13, 0
  br i1 %14, label %17, label %15

15:                                               ; preds = %3
  %16 = load ptr, ptr %9, align 8
  store ptr %16, ptr %4, align 8
  store i32 1, ptr %10, align 4
  br label %60

17:                                               ; preds = %3
  %18 = load ptr, ptr %6, align 8
  %19 = icmp ne ptr %18, null
  br i1 %19, label %20, label %24

20:                                               ; preds = %17
  %21 = load ptr, ptr %6, align 8
  %22 = load i8, ptr %21, align 1
  %23 = icmp ne i8 %22, 0
  br i1 %23, label %26, label %24

24:                                               ; preds = %20, %17
  %25 = load ptr, ptr %9, align 8
  store ptr %25, ptr %4, align 8
  store i32 1, ptr %10, align 4
  br label %60

26:                                               ; preds = %20
  %27 = load ptr, ptr @SDL_properties, align 8
  %28 = load i32, ptr %5, align 4
  %29 = zext i32 %28 to i64
  %30 = inttoptr i64 %29 to ptr
  %31 = call zeroext i1 @SDL_FindInHashTable(ptr noundef %27, ptr noundef %30, ptr noundef %8)
  %32 = load ptr, ptr %8, align 8
  %33 = icmp ne ptr %32, null
  br i1 %33, label %36, label %34

34:                                               ; preds = %26
  %35 = load ptr, ptr %9, align 8
  store ptr %35, ptr %4, align 8
  store i32 1, ptr %10, align 4
  br label %60

36:                                               ; preds = %26
  %37 = load ptr, ptr %8, align 8
  %38 = getelementptr inbounds nuw %struct.SDL_Properties, ptr %37, i32 0, i32 1
  %39 = load ptr, ptr %38, align 8
  call void @SDL_LockMutex_REAL(ptr noundef %39)
  call void @llvm.lifetime.start.p0(i64 8, ptr %11) #6
  store ptr null, ptr %11, align 8
  %40 = load ptr, ptr %8, align 8
  %41 = getelementptr inbounds nuw %struct.SDL_Properties, ptr %40, i32 0, i32 0
  %42 = load ptr, ptr %41, align 8
  %43 = load ptr, ptr %6, align 8
  %44 = call zeroext i1 @SDL_FindInHashTable(ptr noundef %42, ptr noundef %43, ptr noundef %11)
  br i1 %44, label %45, label %55

45:                                               ; preds = %36
  %46 = load ptr, ptr %11, align 8
  %47 = getelementptr inbounds nuw %struct.SDL_Property, ptr %46, i32 0, i32 0
  %48 = load i32, ptr %47, align 8
  %49 = icmp eq i32 %48, 1
  br i1 %49, label %50, label %54

50:                                               ; preds = %45
  %51 = load ptr, ptr %11, align 8
  %52 = getelementptr inbounds nuw %struct.SDL_Property, ptr %51, i32 0, i32 1
  %53 = load ptr, ptr %52, align 8
  store ptr %53, ptr %9, align 8
  br label %54

54:                                               ; preds = %50, %45
  br label %55

55:                                               ; preds = %54, %36
  call void @llvm.lifetime.end.p0(i64 8, ptr %11) #6
  %56 = load ptr, ptr %8, align 8
  %57 = getelementptr inbounds nuw %struct.SDL_Properties, ptr %56, i32 0, i32 1
  %58 = load ptr, ptr %57, align 8
  call void @SDL_UnlockMutex_REAL(ptr noundef %58)
  %59 = load ptr, ptr %9, align 8
  store ptr %59, ptr %4, align 8
  store i32 1, ptr %10, align 4
  br label %60

60:                                               ; preds = %55, %34, %24, %15
  call void @llvm.lifetime.end.p0(i64 8, ptr %9) #6
  call void @llvm.lifetime.end.p0(i64 8, ptr %8) #6
  %61 = load ptr, ptr %4, align 8
  ret ptr %61
}