; Function Attrs: nounwind uwtable
define hidden ptr @SDL_GetPointerProperty_REAL(i32 noundef %0, ptr noundef %1, ptr noundef readnone captures(ret: address, provenance) %2) local_unnamed_addr #0 {
  %4 = alloca ptr, align 8
  %5 = alloca ptr, align 8
  call void @llvm.lifetime.start.p0(i64 8, ptr nonnull %4) #6
  store ptr null, ptr %4, align 8
  %.not = icmp eq i32 %0, 0
  %.not14 = icmp eq ptr %1, null
  %or.cond = or i1 %.not, %.not14
  br i1 %or.cond, label %31, label %6

6:                                                ; preds = %3
  %7 = load i8, ptr %1, align 1
  %.not15 = icmp eq i8 %7, 0
  br i1 %.not15, label %31, label %8

8:                                                ; preds = %6
  %9 = load ptr, ptr @SDL_properties, align 8
  %10 = zext i32 %0 to i64
  %11 = inttoptr i64 %10 to ptr
  %12 = call zeroext i1 @SDL_FindInHashTable(ptr noundef %9, ptr noundef nonnull %11, ptr noundef nonnull %4) #6
  %13 = load ptr, ptr %4, align 8
  %.not16 = icmp eq ptr %13, null
  br i1 %.not16, label %31, label %14

14:                                               ; preds = %8
  %15 = getelementptr inbounds nuw i8, ptr %13, i64 8
  %16 = load ptr, ptr %15, align 8
  call void @SDL_LockMutex_REAL(ptr noundef %16) #6
  call void @llvm.lifetime.start.p0(i64 8, ptr nonnull %5) #6
  store ptr null, ptr %5, align 8
  %17 = load ptr, ptr %4, align 8
  %18 = load ptr, ptr %17, align 8
  %19 = call zeroext i1 @SDL_FindInHashTable(ptr noundef %18, ptr noundef nonnull %1, ptr noundef nonnull %5) #6
  br i1 %19, label %20, label %27

20:                                               ; preds = %14
  %21 = load ptr, ptr %5, align 8
  %22 = load i32, ptr %21, align 8
  %23 = icmp eq i32 %22, 1
  br i1 %23, label %24, label %27

24:                                               ; preds = %20
  %25 = getelementptr inbounds nuw i8, ptr %21, i64 8
  %26 = load ptr, ptr %25, align 8
  br label %27

27:                                               ; preds = %20, %24, %14
  %.0 = phi ptr [ %26, %24 ], [ %2, %20 ], [ %2, %14 ]
  call void @llvm.lifetime.end.p0(i64 8, ptr nonnull %5) #6
  %28 = load ptr, ptr %4, align 8
  %29 = getelementptr inbounds nuw i8, ptr %28, i64 8
  %30 = load ptr, ptr %29, align 8
  call void @SDL_UnlockMutex_REAL(ptr noundef %30) #6
  br label %31

31:                                               ; preds = %8, %6, %3, %27
  %.010 = phi ptr [ %.0, %27 ], [ %2, %3 ], [ %2, %6 ], [ %2, %8 ]
  call void @llvm.lifetime.end.p0(i64 8, ptr nonnull %4) #6
  ret ptr %.010
}